; Function Attrs: nounwind uwtable
define ptr @l_Std_Time_Internal_Bounded_LE_ediv___rarg(ptr noundef %0, ptr noundef %1, ptr noundef readnone captures(none) %2) local_unnamed_addr #1 {
  %4 = ptrtoint ptr %0 to i64
  %5 = and i64 %4, 1
  %.not.i = icmp eq i64 %5, 0
  br i1 %.not.i, label %.critedge.i, label %6, !prof !10

6:                                                ; preds = %3
  %7 = ptrtoint ptr %1 to i64
  %8 = and i64 %7, 1
  %.not18.i = icmp eq i64 %8, 0
  br i1 %.not18.i, label %.critedge.i, label %9, !prof !10

9:                                                ; preds = %6
  %10 = lshr i64 %7, 1
  %11 = trunc i64 %10 to i32
  %12 = icmp eq i32 %11, 0
  br i1 %12, label %lean_int_ediv.exit, label %13

13:                                               ; preds = %9
  %sext.i = shl i64 %10, 32
  %14 = ashr exact i64 %sext.i, 32
  %15 = shl i64 %4, 31
  %16 = ashr i64 %15, 32
  %17 = sdiv i64 %16, %14
  %18 = srem i64 %16, %14
  %19 = icmp slt i64 %18, 0
  %20 = icmp sgt i32 %11, 0
  %.v.i = select i1 %20, i64 -1, i64 1
  %21 = select i1 %19, i64 %.v.i, i64 0
  %.016.i = add nsw i64 %21, %17
  %22 = add nsw i64 %.016.i, 2147483648
  %23 = icmp ult i64 %22, 4294967296
  br i1 %23, label %24, label %29, !prof !9

24:                                               ; preds = %13
  %25 = shl nsw i64 %.016.i, 1
  %26 = and i64 %25, 8589934590
  %27 = or disjoint i64 %26, 1
  %28 = inttoptr i64 %27 to ptr
  br label %lean_int_ediv.exit

29:                                               ; preds = %13
  %30 = tail call ptr @lean_big_int64_to_int(i64 noundef range(i64 -4611686016279904256, 4611686018427387905) %.016.i) #5
  br label %lean_int_ediv.exit

.critedge.i:                                      ; preds = %6, %3
  %31 = tail call ptr @lean_int_big_ediv(ptr noundef %0, ptr noundef %1) #5
  br label %lean_int_ediv.exit

lean_int_ediv.exit:                               ; preds = %9, %24, %29, %.critedge.i
  %.1.i = phi ptr [ %31, %.critedge.i ], [ inttoptr (i64 1 to ptr), %9 ], [ %28, %24 ], [ %30, %29 ]
  ret ptr %.1.i
}